; Function Attrs: mustprogress uwtable
define void @_ZN6icu_7516DateIntervalInfoC2ERKNS_6LocaleER10UErrorCode(ptr noundef nonnull align 8 dereferenceable(88) %this, ptr nocapture noundef nonnull readonly align 8 dereferenceable(217) %locale, ptr noundef nonnull align 4 dereferenceable(4) %status) unnamed_addr #1 align 2 personality ptr @__gxx_personality_v0 {
entry:
  store ptr getelementptr inbounds ({ [7 x ptr] }, ptr @_ZTVN6icu_7516DateIntervalInfoE, i64 0, i32 0, i64 2), ptr %this, align 8
  %fFallbackIntervalPattern = getelementptr inbounds i8, ptr %this, i64 8
  invoke void @_ZN6icu_7513UnicodeStringC1EPKDs(ptr noundef nonnull align 8 dereferenceable(64) %fFallbackIntervalPattern, ptr noundef nonnull @_ZN6icu_75L23gDefaultFallbackPatternE)
          to label %invoke.cont unwind label %lpad

invoke.cont:                                      ; preds = %entry
  %fFirstDateInPtnIsLaterDate = getelementptr inbounds i8, ptr %this, i64 72
  store i8 0, ptr %fFirstDateInPtnIsLaterDate, align 8
  %fIntervalPatterns = getelementptr inbounds i8, ptr %this, i64 80
  store ptr null, ptr %fIntervalPatterns, align 8
  invoke void @_ZN6icu_7516DateIntervalInfo14initializeDataERKNS_6LocaleER10UErrorCode(ptr noundef nonnull align 8 dereferenceable(88) %this, ptr noundef nonnull align 8 dereferenceable(217) %locale, ptr noundef nonnull align 4 dereferenceable(4) %status)
          to label %invoke.cont3 unwind label %lpad2

invoke.cont3:                                     ; preds = %invoke.cont
  ret void

lpad:                                             ; preds = %entry
  %0 = landingpad { ptr, i32 }
          cleanup
  br label %ehcleanup

lpad2:                                            ; preds = %invoke.cont
  %1 = landingpad { ptr, i32 }
          cleanup
  tail call void @_ZN6icu_7513UnicodeStringD1Ev(ptr noundef nonnull align 8 dereferenceable(64) %fFallbackIntervalPattern) #15
  br label %ehcleanup

ehcleanup:                                        ; preds = %lpad2, %lpad
  %.pn = phi { ptr, i32 } [ %1, %lpad2 ], [ %0, %lpad ]
  tail call void @_ZN6icu_757UObjectD2Ev(ptr noundef nonnull align 8 dereferenceable(8) %this) #15
  resume { ptr, i32 } %.pn
}